; Function Attrs: mustprogress uwtable
define noundef ptr @_ZN6icu_778Collator12makeInstanceERKNS_6LocaleER10UErrorCode(ptr noundef nonnull align 8 dereferenceable(217) %0, ptr noundef nonnull align 4 dereferenceable(4) %1) local_unnamed_addr #5 align 2 personality ptr @__gxx_personality_v0 {
  %3 = tail call noundef ptr @_ZN6icu_7715CollationLoader13loadTailoringERKNS_6LocaleER10UErrorCode(ptr noundef nonnull align 8 dereferenceable(217) %0, ptr noundef nonnull align 4 dereferenceable(4) %1)
  %4 = load i32, ptr %1, align 4, !tbaa !6
  %5 = icmp sgt i32 %4, 0
  br i1 %5, label %12, label %6

6:                                                ; preds = %2
  %7 = tail call noundef ptr @_ZN6icu_777UMemorynwEm(i64 noundef 272) #16
  %8 = icmp eq ptr %7, null
  br i1 %8, label %.thread23, label %9

9:                                                ; preds = %6
  invoke void @_ZN6icu_7717RuleBasedCollatorC1EPKNS_19CollationCacheEntryE(ptr noundef nonnull align 8 dereferenceable(272) %7, ptr noundef %3)
          to label %.sink.split unwind label %10

10:                                               ; preds = %9
  %11 = landingpad { ptr, i32 }
          cleanup
  tail call void @_ZN6icu_777UMemorydlEPv(ptr noundef nonnull %7) #16
  resume { ptr, i32 } %11

.thread23:                                        ; preds = %6
  store i32 7, ptr %1, align 4, !tbaa !6
  br label %12

12:                                               ; preds = %.thread23, %2
  %.not19 = icmp eq ptr %3, null
  br i1 %.not19, label %13, label %.sink.split

.sink.split:                                      ; preds = %12, %9
  %.1.ph = phi ptr [ %7, %9 ], [ null, %12 ]
  tail call void @_ZNK6icu_7712SharedObject9removeRefEv(ptr noundef nonnull align 8 dereferenceable(24) %3)
  br label %13

13:                                               ; preds = %.sink.split, %12
  %.1 = phi ptr [ null, %12 ], [ %.1.ph, %.sink.split ]
  ret ptr %.1
}